; Function Attrs: mustprogress uwtable
define void @_ZN15AlignPairDialog16setFakeColorFlagEb(ptr nocapture noundef nonnull readonly align 8 dereferenceable(56) %0, i1 noundef zeroext %1) local_unnamed_addr #9 align 2 {
  %3 = xor i1 %1, true
  %4 = getelementptr inbounds i8, ptr %0, i64 48
  %5 = load ptr, ptr %4, align 8
  %6 = getelementptr inbounds i8, ptr %5, i64 1364
  %7 = zext i1 %3 to i8
  store i8 %7, ptr %6, align 4
  %8 = load ptr, ptr %4, align 8
  tail call void @_ZN7QWidget6updateEv(ptr noundef nonnull align 8 dereferenceable(48) %8)
  ret void
}